Certificate:
    Data:
        Version: 3 (0x2)
        Serial Number:
            aa:57:6f:2a:a2:ed:3e:1c
        Signature Algorithm: sha1WithRSAEncryption
        Issuer: C=IN, ST=KAR, O=radisys, OU=SECURITY, CN=MOON/emailAddress=moon@radisys.com
        Validity
            Not Before: Oct 19 12:02:47 2011 GMT
            Not After : Oct 18 12:02:47 2012 GMT
        Subject: C=IN, ST=KAR, L=BENGALURU, O=radisys, OU=SECURITY, CN=MOON/emailAddress=moon@radisys.com
        Subject Public Key Info:
            Public Key Algorithm: rsaEncryption
            RSA Public Key: (1024 bit)
                Modulus (1024 bit):
                    00:a6:a7:f6:9d:ee:c6:79:81:4f:05:62:0d:b7:bf:
                    c3:73:a9:e9:0e:65:25:c1:ca:91:5c:16:35:3c:cd:
                    43:b2:2a:bc:7e:3f:a8:e8:6c:ae:c6:e1:6b:d9:7e:
                    14:33:26:9c:d7:82:d0:53:d8:e0:11:43:95:b3:1f:
                    c5:69:8c:bb:0f:72:a3:70:60:35:dc:03:db:64:89:
                    42:51:92:d3:b6:2d:22:9d:db:c4:18:e3:6d:de:e0:
                    4f:0b:55:c4:b9:83:03:b4:fd:d7:20:10:04:50:2e:
                    0b:7c:ad:0f:21:3f:a2:35:94:91:39:4b:46:0b:1e:
                    63:ed:92:7a:e6:86:20:22:77
                Exponent: 65537 (0x10001)
        X509v3 extensions:
            X509v3 Basic Constraints: 
                CA:FALSE
            Netscape Comment: 
                OpenSSL Generated Certificate
            X509v3 Subject Key Identifier: 
                2D:0C:69:89:FA:1E:B4:68:0A:12:8C:04:8F:F9:95:56:1C:7D:02:85
            X509v3 Authority Key Identifier: 
                keyid:C3:A4:63:E9:74:B5:39:1A:DF:1E:1A:5E:F8:05:92:43:FE:43:87:18

    Signature Algorithm: sha1WithRSAEncryption
        83:5d:48:47:3f:99:3c:06:a7:41:95:6b:44:76:0a:e2:f4:31:
        7e:9b:e7:ba:19:ab:d3:d3:08:7a:06:1e:68:71:f3:94:45:b1:
        38:a7:6d:5a:b2:6e:f5:f6:5f:05:aa:9b:30:ed:fe:0f:f1:1d:
        c1:86:7b:5d:7d:27:c6:45:bb:f3:cc:72:ce:df:c8:19:80:e9:
        9d:cc:91:6a:72:12:1d:32:62:2b:7e:72:ee:9b:2c:e7:78:25:
        12:b4:5f:bf:54:7e:eb:e2:99:a0:2d:5e:75:55:06:d9:2a:36:
        89:1d:35:f4:0d:4d:fa:8f:f6:5c:dc:a4:c3:4e:4d:34:2f:13:
        8b:bc
-----BEGIN CERTIFICATE-----
MIIC7jCCAlegAwIBAgIJAKpXbyqi7T4cMA0GCSqGSIb3DQEBBQUAMHAxCzAJBgNV
BAYTAklOMQwwCgYDVQQIEwNLQVIxEDAOBgNVBAoTB3JhZGlzeXMxETAPBgNVBAsT
CFNFQ1VSSVRZMQ0wCwYDVQQDEwRNT09OMR8wHQYJKoZIhvcNAQkBFhBtb29uQHJh
ZGlzeXMuY29tMB4XDTExMTAxOTEyMDI0N1oXDTEyMTAxODEyMDI0N1owgYQxCzAJ
BgNVBAYTAklOMQwwCgYDVQQIEwNLQVIxEjAQBgNVBAcTCUJFTkdBTFVSVTEQMA4G
A1UEChMHcmFkaXN5czERMA8GA1UECxMIU0VDVVJJVFkxDTALBgNVBAMTBE1PT04x
HzAdBgkqhkiG9w0BCQEWEG1vb25AcmFkaXN5cy5jb20wgZ8wDQYJKoZIhvcNAQEB
BQADgY0AMIGJAoGBAKan9p3uxnmBTwViDbe/w3Op6Q5lJcHKkVwWNTzNQ7IqvH4/
qOhsrsbha9l+FDMmnNeC0FPY4BFDlbMfxWmMuw9yo3BgNdwD22SJQlGS07YtIp3b
xBjjbd7gTwtVxLmDA7T91yAQBFAuC3ytDyE/ojWUkTlLRgseY+2SeuaGICJ3AgMB
AAGjezB5MAkGA1UdEwQCMAAwLAYJYIZIAYb4QgENBB8WHU9wZW5TU0wgR2VuZXJh
dGVkIENlcnRpZmljYXRlMB0GA1UdDgQWBBQtDGmJ+h60aAoSjASP+ZVWHH0ChTAf
BgNVHSMEGDAWgBTDpGPpdLU5Gt8eGl74BZJD/kOHGDANBgkqhkiG9w0BAQUFAAOB
gQCDXUhHP5k8BqdBlWtEdgri9DF+m+e6GavT0wh6Bh5ocfOURbE4p21asm719l8F
qpsw7f4P8R3BhntdfSfGRbvzzHLO38gZgOmdzJFqchIdMmIrfnLumyzneCUStF+/
VH7r4pmgLV51VQbZKjaJHTX0DU36j/Zc3KTDTk00LxOLvA==
-----END CERTIFICATE-----
