Certificate:
    Data:
        Version: 3 (0x2)
        Serial Number:
            aa:57:6f:2a:a2:ed:3e:1b
        Signature Algorithm: sha1WithRSAEncryption
        Issuer: C=IN, ST=KAR, O=radisys, OU=SECURITY, CN=MOON/emailAddress=moon@radisys.com
        Validity
            Not Before: Oct 19 12:01:08 2011 GMT
            Not After : Oct 18 12:01:08 2014 GMT
        Subject: C=IN, ST=KAR, O=radisys, OU=SECURITY, CN=MOON/emailAddress=moon@radisys.com
        Subject Public Key Info:
            Public Key Algorithm: rsaEncryption
            RSA Public Key: (1024 bit)
                Modulus (1024 bit):
                    00:f3:8d:c9:b1:06:2a:30:23:01:ee:bf:b2:b6:ef:
                    64:86:61:25:45:24:73:22:3f:fd:3a:2c:09:12:48:
                    a3:8c:60:4f:db:0b:5a:74:0b:3a:24:f1:ba:26:f4:
                    e0:18:07:f0:c2:29:d4:b6:3e:e6:f9:13:9d:da:d5:
                    62:36:94:96:06:ba:c1:d4:14:0b:fb:19:a2:6c:51:
                    14:23:9c:56:28:44:68:a2:d0:7e:66:03:84:83:dc:
                    b0:b8:0d:22:7a:3e:e6:5c:67:c9:8f:4f:44:af:75:
                    e9:11:18:4e:16:69:4d:04:e2:87:b0:33:1f:fb:d8:
                    2d:19:0f:02:b7:75:e6:70:8d
                Exponent: 65537 (0x10001)
        X509v3 extensions:
            X509v3 Subject Key Identifier: 
                C3:A4:63:E9:74:B5:39:1A:DF:1E:1A:5E:F8:05:92:43:FE:43:87:18
            X509v3 Authority Key Identifier: 
                keyid:C3:A4:63:E9:74:B5:39:1A:DF:1E:1A:5E:F8:05:92:43:FE:43:87:18
                DirName:/C=IN/ST=KAR/O=radisys/OU=SECURITY/CN=MOON/emailAddress=moon@radisys.com
                serial:AA:57:6F:2A:A2:ED:3E:1B

            X509v3 Basic Constraints: 
                CA:TRUE
    Signature Algorithm: sha1WithRSAEncryption
        a9:e8:c7:62:8a:97:44:fb:59:dc:90:ce:7d:2b:5d:e3:c9:77:
        0c:b6:53:f1:e3:10:ba:a9:a9:94:80:2e:b4:08:26:b5:3f:ae:
        b9:33:91:e6:74:e4:39:db:ef:3f:25:fe:6f:e6:ed:27:01:14:
        52:16:a6:fb:df:07:f9:2f:71:15:9c:f8:fb:75:dd:af:0c:12:
        de:ca:e8:20:88:14:65:4a:9c:f0:a6:9d:7d:1a:5f:54:a8:d2:
        38:64:df:ba:c8:39:a2:80:79:d7:d0:37:ad:2d:88:e7:46:44:
        1c:40:17:8f:18:57:97:fa:64:2b:87:07:80:29:29:b8:2d:d1:
        45:b0
-----BEGIN CERTIFICATE-----
MIIDNDCCAp2gAwIBAgIJAKpXbyqi7T4bMA0GCSqGSIb3DQEBBQUAMHAxCzAJBgNV
BAYTAklOMQwwCgYDVQQIEwNLQVIxEDAOBgNVBAoTB3JhZGlzeXMxETAPBgNVBAsT
CFNFQ1VSSVRZMQ0wCwYDVQQDEwRNT09OMR8wHQYJKoZIhvcNAQkBFhBtb29uQHJh
ZGlzeXMuY29tMB4XDTExMTAxOTEyMDEwOFoXDTE0MTAxODEyMDEwOFowcDELMAkG
A1UEBhMCSU4xDDAKBgNVBAgTA0tBUjEQMA4GA1UEChMHcmFkaXN5czERMA8GA1UE
CxMIU0VDVVJJVFkxDTALBgNVBAMTBE1PT04xHzAdBgkqhkiG9w0BCQEWEG1vb25A
cmFkaXN5cy5jb20wgZ8wDQYJKoZIhvcNAQEBBQADgY0AMIGJAoGBAPONybEGKjAj
Ae6/srbvZIZhJUUkcyI//TosCRJIo4xgT9sLWnQLOiTxuib04BgH8MIp1LY+5vkT
ndrVYjaUlga6wdQUC/sZomxRFCOcVihEaKLQfmYDhIPcsLgNIno+5lxnyY9PRK91
6REYThZpTQTih7AzH/vYLRkPArd15nCNAgMBAAGjgdUwgdIwHQYDVR0OBBYEFMOk
Y+l0tTka3x4aXvgFkkP+Q4cYMIGiBgNVHSMEgZowgZeAFMOkY+l0tTka3x4aXvgF
kkP+Q4cYoXSkcjBwMQswCQYDVQQGEwJJTjEMMAoGA1UECBMDS0FSMRAwDgYDVQQK
EwdyYWRpc3lzMREwDwYDVQQLEwhTRUNVUklUWTENMAsGA1UEAxMETU9PTjEfMB0G
CSqGSIb3DQEJARYQbW9vbkByYWRpc3lzLmNvbYIJAKpXbyqi7T4bMAwGA1UdEwQF
MAMBAf8wDQYJKoZIhvcNAQEFBQADgYEAqejHYoqXRPtZ3JDOfStd48l3DLZT8eMQ
uqmplIAutAgmtT+uuTOR5nTkOdvvPyX+b+btJwEUUham+98H+S9xFZz4+3XdrwwS
3sroIIgUZUqc8KadfRpfVKjSOGTfusg5ooB519A3rS2I50ZEHEAXjxhXl/pkK4cH
gCkpuC3RRbA=
-----END CERTIFICATE-----
