Certificate:
    Data:
        Version: 3 (0x2)
        Serial Number:
            e0:75:a2:f8:b7:e9:e7:22
    Signature Algorithm: sha1WithRSAEncryption
        Issuer: C=--, ST=SomeState, L=SomeCity, O=SomeOrganization, OU=SomeOrganizationalUnit, CN=fap/emailAddress=Fap.radisys.com
        Validity
            Not Before: Mar 13 11:11:36 2015 GMT
            Not After : Mar 12 11:11:36 2016 GMT
        Subject: C=--, ST=SomeState, L=SomeCity, O=SomeOrganization, OU=SomeOrganizationalUnit, CN=fap/emailAddress=Fap.radisys.com
        Subject Public Key Info:
            Public Key Algorithm: rsaEncryption
                Public-Key: (1024 bit)
                Modulus:
                    00:c0:dd:76:8b:11:8c:ec:51:2e:9e:f6:6e:dd:64:
                    46:56:de:fc:27:bd:8a:e1:f9:33:e4:e7:db:89:75:
                    94:3a:be:9d:f5:01:48:a0:c7:3d:b7:18:af:31:1e:
                    87:1a:f2:3d:9b:72:53:7b:74:e1:7f:2d:10:3d:32:
                    3d:1f:82:be:7b:e5:43:2a:7e:ec:14:c2:c4:57:2a:
                    f0:ea:bb:c4:c3:94:7f:9a:1f:1b:f0:90:fc:71:07:
                    b1:15:ce:12:a2:91:70:1a:0e:f3:dc:d3:19:26:0c:
                    df:e9:0c:01:6d:00:cf:85:c3:15:c1:69:8c:3d:da:
                    6e:04:a3:40:8c:ad:ce:73:3b
                Exponent: 65537 (0x10001)
        X509v3 extensions:
            X509v3 Subject Key Identifier: 
                CF:36:9B:5F:F3:5B:4F:2E:81:23:62:C0:EF:D9:35:E0:DD:20:84:6B
            X509v3 Authority Key Identifier: 
                keyid:CF:36:9B:5F:F3:5B:4F:2E:81:23:62:C0:EF:D9:35:E0:DD:20:84:6B
                DirName:/C=--/ST=SomeState/L=SomeCity/O=SomeOrganization/OU=SomeOrganizationalUnit/CN=fap/emailAddress=Fap.radisys.com
                serial:E0:75:A2:F8:B7:E9:E7:22

            X509v3 Basic Constraints: 
                CA:TRUE
    Signature Algorithm: sha1WithRSAEncryption
         91:01:a5:3c:81:7b:29:76:41:d0:69:78:03:4d:f9:92:e8:a8:
         d9:4c:06:ec:2a:04:f6:10:e5:f6:0a:61:f5:79:61:bf:35:42:
         d7:d9:6b:ae:10:ac:b9:af:9f:f9:88:9c:61:ad:f4:e0:ee:af:
         07:d9:68:2f:81:67:3b:89:8e:c3:d0:65:c0:9e:9b:7a:b1:ef:
         1c:38:cf:0e:35:c6:b1:bd:80:d9:47:0b:07:d8:da:86:8f:28:
         6a:3a:a6:ca:ee:74:10:8d:4a:a3:df:a4:d2:3d:2f:d1:8c:1c:
         ed:9b:a1:e6:05:ce:23:3f:fd:df:fc:79:7d:b0:53:f8:72:37:
         36:7e
-----BEGIN CERTIFICATE-----
MIIDxTCCAy6gAwIBAgIJAOB1ovi36eciMA0GCSqGSIb3DQEBBQUAMIGeMQswCQYD
VQQGEwItLTESMBAGA1UECBMJU29tZVN0YXRlMREwDwYDVQQHEwhTb21lQ2l0eTEZ
MBcGA1UEChMQU29tZU9yZ2FuaXphdGlvbjEfMB0GA1UECxMWU29tZU9yZ2FuaXph
dGlvbmFsVW5pdDEMMAoGA1UEAxMDZmFwMR4wHAYJKoZIhvcNAQkBFg9GYXAucmFk
aXN5cy5jb20wHhcNMTUwMzEzMTExMTM2WhcNMTYwMzEyMTExMTM2WjCBnjELMAkG
A1UEBhMCLS0xEjAQBgNVBAgTCVNvbWVTdGF0ZTERMA8GA1UEBxMIU29tZUNpdHkx
GTAXBgNVBAoTEFNvbWVPcmdhbml6YXRpb24xHzAdBgNVBAsTFlNvbWVPcmdhbml6
YXRpb25hbFVuaXQxDDAKBgNVBAMTA2ZhcDEeMBwGCSqGSIb3DQEJARYPRmFwLnJh
ZGlzeXMuY29tMIGfMA0GCSqGSIb3DQEBAQUAA4GNADCBiQKBgQDA3XaLEYzsUS6e
9m7dZEZW3vwnvYrh+TPk59uJdZQ6vp31AUigxz23GK8xHoca8j2bclN7dOF/LRA9
Mj0fgr575UMqfuwUwsRXKvDqu8TDlH+aHxvwkPxxB7EVzhKikXAaDvPc0xkmDN/p
DAFtAM+FwxXBaYw92m4Eo0CMrc5zOwIDAQABo4IBBzCCAQMwHQYDVR0OBBYEFM82
m1/zW08ugSNiwO/ZNeDdIIRrMIHTBgNVHSMEgcswgciAFM82m1/zW08ugSNiwO/Z
NeDdIIRroYGkpIGhMIGeMQswCQYDVQQGEwItLTESMBAGA1UECBMJU29tZVN0YXRl
MREwDwYDVQQHEwhTb21lQ2l0eTEZMBcGA1UEChMQU29tZU9yZ2FuaXphdGlvbjEf
MB0GA1UECxMWU29tZU9yZ2FuaXphdGlvbmFsVW5pdDEMMAoGA1UEAxMDZmFwMR4w
HAYJKoZIhvcNAQkBFg9GYXAucmFkaXN5cy5jb22CCQDgdaL4t+nnIjAMBgNVHRME
BTADAQH/MA0GCSqGSIb3DQEBBQUAA4GBAJEBpTyBeyl2QdBpeANN+ZLoqNlMBuwq
BPYQ5fYKYfV5Yb81QtfZa64QrLmvn/mInGGt9ODurwfZaC+BZzuJjsPQZcCem3qx
7xw4zw41xrG9gNlHCwfY2oaPKGo6psrudBCNSqPfpNI9L9GMHO2boeYFziM//d/8
eX2wU/hyNzZ+
-----END CERTIFICATE-----
